target datalayout = "e-m:e-p270:32:32-p271:32:32-p272:64:64-i64:64-i128:128-f80:128-n8:16:32:64-S128"
target triple = "x86_64-pc-linux-gnu"

%struct.RepeatInfo = type { i8, i32, i32, i32, i32, i32, i32, [2 x i32], i32, i32, i32, i32, i32 }
%struct.RepeatTrailerControl = type { i64, i64 }

; Function Attrs: alwaysinline nounwind uwtable
define internal i64 @mask_ones_to(i32 noundef %0) #2 {
  %2 = alloca i64, align 8
  %3 = alloca i32, align 4
  store i32 %0, ptr %3, align 4
  %4 = load i32, ptr %3, align 4
  %5 = icmp ult i32 %4, 63
  br i1 %5, label %6, label %12

6:                                                ; preds = %1
  %7 = load i32, ptr %3, align 4
  %8 = add i32 %7, 1
  %9 = zext i32 %8 to i64
  %10 = shl i64 1, %9
  %11 = sub i64 %10, 1
  store i64 %11, ptr %2, align 8
  br label %13

12:                                               ; preds = %1
  store i64 -1, ptr %2, align 8
  br label %13

13:                                               ; preds = %12, %6
  %14 = load i64, ptr %2, align 8
  ret i64 %14
}

; Function Attrs: nounwind uwtable
define hidden void @repeatStoreTrailer(ptr noundef %0, ptr noundef %1, i64 noundef %2, i8 noundef signext %3) #0 {
  %5 = alloca ptr, align 8
  %6 = alloca ptr, align 8
  %7 = alloca i64, align 8
  %8 = alloca i8, align 1
  %9 = alloca ptr, align 8
  %10 = alloca i64, align 8
  %11 = alloca i32, align 4
  %12 = alloca i32, align 4
  %13 = alloca i64, align 8
  %14 = alloca i64, align 8
  %15 = alloca i64, align 8
  %16 = alloca i64, align 8
  %17 = alloca i64, align 8
  store ptr %0, ptr %5, align 8
  store ptr %1, ptr %6, align 8
  store i64 %2, ptr %7, align 8
  store i8 %3, ptr %8, align 1
  br label %18

18:                                               ; preds = %4
  br label %19

19:                                               ; preds = %18
  call void @llvm.lifetime.start.p0(i64 8, ptr %9) #7
  %20 = load ptr, ptr %6, align 8
  store ptr %20, ptr %9, align 8
  call void @llvm.lifetime.start.p0(i64 8, ptr %10) #7
  %21 = load i64, ptr %7, align 8
  %22 = load ptr, ptr %5, align 8
  %23 = getelementptr inbounds nuw %struct.RepeatInfo, ptr %22, i32 0, i32 1
  %24 = load i32, ptr %23, align 4
  %25 = zext i32 %24 to i64
  %26 = add i64 %21, %25
  store i64 %26, ptr %10, align 8
  %27 = load i8, ptr %8, align 1
  %28 = icmp ne i8 %27, 0
  br i1 %28, label %38, label %29

29:                                               ; preds = %19
  %30 = load i64, ptr %10, align 8
  %31 = load ptr, ptr %9, align 8
  %32 = getelementptr inbounds nuw %struct.RepeatTrailerControl, ptr %31, i32 0, i32 0
  store i64 %30, ptr %32, align 8
  %33 = load ptr, ptr %9, align 8
  %34 = getelementptr inbounds nuw %struct.RepeatTrailerControl, ptr %33, i32 0, i32 1
  store i64 0, ptr %34, align 8
  br label %35

35:                                               ; preds = %29
  br label %36

36:                                               ; preds = %35
  br label %37

37:                                               ; preds = %36
  store i32 1, ptr %11, align 4
  br label %129

38:                                               ; preds = %19
  call void @llvm.lifetime.start.p0(i64 4, ptr %12) #7
  %39 = load ptr, ptr %5, align 8
  %40 = getelementptr inbounds nuw %struct.RepeatInfo, ptr %39, i32 0, i32 2
  %41 = load i32, ptr %40, align 4
  %42 = load ptr, ptr %5, align 8
  %43 = getelementptr inbounds nuw %struct.RepeatInfo, ptr %42, i32 0, i32 1
  %44 = load i32, ptr %43, align 4
  %45 = sub i32 %41, %44
  store i32 %45, ptr %12, align 4
  br label %46

46:                                               ; preds = %38
  br label %47

47:                                               ; preds = %46
  br label %48

48:                                               ; preds = %47
  call void @llvm.lifetime.start.p0(i64 8, ptr %13) #7
  %49 = load i64, ptr %10, align 8
  %50 = load ptr, ptr %9, align 8
  %51 = getelementptr inbounds nuw %struct.RepeatTrailerControl, ptr %50, i32 0, i32 0
  %52 = load i64, ptr %51, align 8
  %53 = sub i64 %49, %52
  store i64 %53, ptr %13, align 8
  br label %54

54:                                               ; preds = %48
  br label %55

55:                                               ; preds = %54
  br label %56

56:                                               ; preds = %55
  %57 = load i64, ptr %13, align 8
  %58 = icmp ult i64 %57, 64
  br i1 %58, label %59, label %65

59:                                               ; preds = %56
  %60 = load ptr, ptr %9, align 8
  %61 = getelementptr inbounds nuw %struct.RepeatTrailerControl, ptr %60, i32 0, i32 1
  %62 = load i64, ptr %61, align 8
  %63 = load i64, ptr %13, align 8
  %64 = shl i64 %62, %63
  br label %66

65:                                               ; preds = %56
  br label %66

66:                                               ; preds = %65, %59
  %67 = phi i64 [ %64, %59 ], [ 0, %65 ]
  %68 = load ptr, ptr %9, align 8
  %69 = getelementptr inbounds nuw %struct.RepeatTrailerControl, ptr %68, i32 0, i32 1
  store i64 %67, ptr %69, align 8
  %70 = load i64, ptr %13, align 8
  %71 = load i32, ptr %12, align 4
  %72 = zext i32 %71 to i64
  %73 = icmp ule i64 %70, %72
  br i1 %73, label %74, label %84

74:                                               ; preds = %66
  call void @llvm.lifetime.start.p0(i64 8, ptr %14) #7
  %75 = load i64, ptr %13, align 8
  %76 = sub i64 %75, 1
  %77 = trunc i64 %76 to i32
  %78 = call i64 @mask_ones_to(i32 noundef %77)
  store i64 %78, ptr %14, align 8
  %79 = load i64, ptr %14, align 8
  %80 = load ptr, ptr %9, align 8
  %81 = getelementptr inbounds nuw %struct.RepeatTrailerControl, ptr %80, i32 0, i32 1
  %82 = load i64, ptr %81, align 8
  %83 = or i64 %82, %79
  store i64 %83, ptr %81, align 8
  call void @llvm.lifetime.end.p0(i64 8, ptr %14) #7
  br label %104

84:                                               ; preds = %66
  call void @llvm.lifetime.start.p0(i64 8, ptr %15) #7
  %85 = load i64, ptr %13, align 8
  %86 = load i32, ptr %12, align 4
  %87 = zext i32 %86 to i64
  %88 = sub i64 %85, %87
  %89 = sub i64 %88, 1
  store i64 %89, ptr %15, align 8
  %90 = load i64, ptr %15, align 8
  %91 = icmp ult i64 %90, 64
  br i1 %91, label %92, label %103

92:                                               ; preds = %84
  call void @llvm.lifetime.start.p0(i64 8, ptr %16) #7
  %93 = load i32, ptr %12, align 4
  %94 = call i64 @mask_ones_to(i32 noundef %93)
  store i64 %94, ptr %16, align 8
  %95 = load i64, ptr %15, align 8
  %96 = load i64, ptr %16, align 8
  %97 = shl i64 %96, %95
  store i64 %97, ptr %16, align 8
  %98 = load i64, ptr %16, align 8
  %99 = load ptr, ptr %9, align 8
  %100 = getelementptr inbounds nuw %struct.RepeatTrailerControl, ptr %99, i32 0, i32 1
  %101 = load i64, ptr %100, align 8
  %102 = or i64 %101, %98
  store i64 %102, ptr %100, align 8
  call void @llvm.lifetime.end.p0(i64 8, ptr %16) #7
  br label %103

103:                                              ; preds = %92, %84
  call void @llvm.lifetime.end.p0(i64 8, ptr %15) #7
  br label %104

104:                                              ; preds = %103, %74
  br label %105

105:                                              ; preds = %104
  br label %106

106:                                              ; preds = %105
  br label %107

107:                                              ; preds = %106
  %108 = load i64, ptr %10, align 8
  %109 = load ptr, ptr %9, align 8
  %110 = getelementptr inbounds nuw %struct.RepeatTrailerControl, ptr %109, i32 0, i32 0
  store i64 %108, ptr %110, align 8
  %111 = load ptr, ptr %5, align 8
  %112 = getelementptr inbounds nuw %struct.RepeatInfo, ptr %111, i32 0, i32 1
  %113 = load i32, ptr %112, align 4
  %114 = icmp ult i32 %113, 63
  br i1 %114, label %115, label %128

115:                                              ; preds = %107
  call void @llvm.lifetime.start.p0(i64 8, ptr %17) #7
  %116 = load ptr, ptr %5, align 8
  %117 = getelementptr inbounds nuw %struct.RepeatInfo, ptr %116, i32 0, i32 1
  %118 = load i32, ptr %117, align 4
  %119 = add i32 %118, 1
  %120 = zext i32 %119 to i64
  %121 = shl i64 1, %120
  %122 = sub i64 %121, 1
  store i64 %122, ptr %17, align 8
  %123 = load i64, ptr %17, align 8
  %124 = load ptr, ptr %9, align 8
  %125 = getelementptr inbounds nuw %struct.RepeatTrailerControl, ptr %124, i32 0, i32 1
  %126 = load i64, ptr %125, align 8
  %127 = and i64 %126, %123
  store i64 %127, ptr %125, align 8
  call void @llvm.lifetime.end.p0(i64 8, ptr %17) #7
  br label %128

128:                                              ; preds = %115, %107
  call void @llvm.lifetime.end.p0(i64 8, ptr %13) #7
  call void @llvm.lifetime.end.p0(i64 4, ptr %12) #7
  store i32 0, ptr %11, align 4
  br label %129

129:                                              ; preds = %128, %37
  call void @llvm.lifetime.end.p0(i64 8, ptr %10) #7
  call void @llvm.lifetime.end.p0(i64 8, ptr %9) #7
  %130 = load i32, ptr %11, align 4
  switch i32 %130, label %132 [
    i32 0, label %131
    i32 1, label %131
  ]

131:                                              ; preds = %129, %129
  ret void

132:                                              ; preds = %129
  unreachable
}