; Function Attrs: mustprogress nofree norecurse nosync nounwind willreturn memory(argmem: readwrite) uwtable
define hidden void @repeatStoreTrailer(ptr noundef readonly captures(none) %0, ptr noundef captures(none) %1, i64 noundef %2, i8 noundef signext %3) local_unnamed_addr #5 {
  %5 = getelementptr inbounds nuw i8, ptr %0, i64 4
  %6 = load i32, ptr %5, align 4
  %7 = zext i32 %6 to i64
  %8 = add i64 %2, %7
  %.not = icmp eq i8 %3, 0
  br i1 %.not, label %9, label %11

9:                                                ; preds = %4
  store i64 %8, ptr %1, align 8
  %10 = getelementptr inbounds nuw i8, ptr %1, i64 8
  store i64 0, ptr %10, align 8
  br label %51

11:                                               ; preds = %4
  %12 = getelementptr inbounds nuw i8, ptr %0, i64 8
  %13 = load i32, ptr %12, align 4
  %14 = sub i32 %13, %6
  %15 = load i64, ptr %1, align 8
  %16 = sub i64 %8, %15
  %17 = icmp ult i64 %16, 64
  br i1 %17, label %18, label %22

18:                                               ; preds = %11
  %19 = getelementptr inbounds nuw i8, ptr %1, i64 8
  %20 = load i64, ptr %19, align 8
  %21 = shl i64 %20, %16
  br label %22

22:                                               ; preds = %11, %18
  %23 = phi i64 [ %21, %18 ], [ 0, %11 ]
  %24 = getelementptr inbounds nuw i8, ptr %1, i64 8
  store i64 %23, ptr %24, align 8
  %25 = zext i32 %14 to i64
  %.not36 = icmp ugt i64 %16, %25
  br i1 %.not36, label %31, label %26

26:                                               ; preds = %22
  %27 = trunc i64 %16 to i32
  %28 = add i32 %27, -1
  %29 = icmp ult i32 %28, 63
  %notmask.i = shl nsw i64 -1, %16
  %30 = xor i64 %notmask.i, -1
  %.0.i = select i1 %29, i64 %30, i64 -1
  br label %.sink.split

31:                                               ; preds = %22
  %32 = xor i64 %25, -1
  %33 = add i64 %16, %32
  %34 = icmp ult i64 %33, 64
  br i1 %34, label %35, label %42

35:                                               ; preds = %31
  %36 = icmp ult i32 %14, 63
  %37 = add nuw nsw i32 %14, 1
  %38 = zext nneg i32 %37 to i64
  %notmask.i37 = shl nsw i64 -1, %38
  %39 = xor i64 %notmask.i37, -1
  %.0.i38 = select i1 %36, i64 %39, i64 -1
  %40 = shl i64 %.0.i38, %33
  br label %.sink.split

.sink.split:                                      ; preds = %26, %35
  %.sink39 = phi i64 [ %40, %35 ], [ %.0.i, %26 ]
  %41 = or i64 %23, %.sink39
  store i64 %41, ptr %24, align 8
  br label %42

42:                                               ; preds = %.sink.split, %31
  %43 = phi i64 [ %23, %31 ], [ %41, %.sink.split ]
  store i64 %8, ptr %1, align 8
  %44 = load i32, ptr %5, align 4
  %45 = icmp ult i32 %44, 63
  br i1 %45, label %46, label %51

46:                                               ; preds = %42
  %47 = add nuw nsw i32 %44, 1
  %48 = zext nneg i32 %47 to i64
  %notmask = shl nsw i64 -1, %48
  %49 = xor i64 %notmask, -1
  %50 = and i64 %43, %49
  store i64 %50, ptr %24, align 8
  br label %51

51:                                               ; preds = %42, %46, %9
  ret void
}